target datalayout = "e-m:e-p270:32:32-p271:32:32-p272:64:64-i64:64-i128:128-f80:128-n8:16:32:64-S128"
target triple = "x86_64-unknown-linux-gnu"

%struct.AIOCBInfo = type { ptr, i64 }
%struct.QEMUSGList = type { ptr, i32, i32, i64, ptr, ptr }
%struct.DMAAIOCB = type { %struct.BlockAIOCB, ptr, ptr, ptr, i32, i64, i32, i32, i64, %struct.QEMUIOVector, ptr, ptr, ptr }
%struct.BlockAIOCB = type { ptr, ptr, ptr, ptr, i32 }
%struct.QEMUIOVector = type { ptr, i32, %union.anon }
%union.anon = type { %struct.anon }
%struct.anon = type { i32, %struct.iovec }
%struct.iovec = type { ptr, i64 }
%struct.timeval = type { i64, i64 }

@dma_aiocb_info = internal constant %struct.AIOCBInfo { ptr @dma_aio_cancel, i64 160 }, align 8
@trace_events_enabled_count = external global i32, align 4
@message_with_timestamp = external global i8, align 1
@qemu_loglevel = external global i32, align 4
@_TRACE_DMA_BLK_IO_DSTATE = external global i16, align 2
@.str.4 = private unnamed_addr constant [59 x i8] c"%d@%zu.%06zu:dma_blk_io dbs=%p bs=%p offset=%ld to_dev=%d\0A\00", align 1
@.str.5 = private unnamed_addr constant [46 x i8] c"dma_blk_io dbs=%p bs=%p offset=%ld to_dev=%d\0A\00", align 1

; Function Attrs: nounwind sspstrong uwtable
define internal zeroext i1 @qemu_loglevel_mask(i32 noundef %mask) #0 {
entry:
  %mask.addr = alloca i32, align 4
  store i32 %mask, ptr %mask.addr, align 4
  %0 = load i32, ptr @qemu_loglevel, align 4
  %1 = load i32, ptr %mask.addr, align 4
  %and = and i32 %0, %1
  %cmp = icmp ne i32 %and, 0
  ret i1 %cmp
}

; Function Attrs: nounwind sspstrong uwtable
define internal void @_nocheck__trace_dma_blk_io(ptr noundef %dbs, ptr noundef %bs, i64 noundef %offset, i1 noundef zeroext %to_dev) #0 {
entry:
  %dbs.addr = alloca ptr, align 8
  %bs.addr = alloca ptr, align 8
  %offset.addr = alloca i64, align 8
  %to_dev.addr = alloca i8, align 1
  %_now = alloca %struct.timeval, align 8
  store ptr %dbs, ptr %dbs.addr, align 8
  store ptr %bs, ptr %bs.addr, align 8
  store i64 %offset, ptr %offset.addr, align 8
  %frombool = zext i1 %to_dev to i8
  store i8 %frombool, ptr %to_dev.addr, align 1
  %0 = load i32, ptr @trace_events_enabled_count, align 4
  %tobool = icmp ne i32 %0, 0
  %lnot = xor i1 %tobool, true
  %lnot1 = xor i1 %lnot, true
  %lnot.ext = zext i1 %lnot1 to i32
  %conv = sext i32 %lnot.ext to i64
  %tobool2 = icmp ne i64 %conv, 0
  br i1 %tobool2, label %land.lhs.true, label %if.end15

land.lhs.true:                                    ; preds = %entry
  %1 = load i16, ptr @_TRACE_DMA_BLK_IO_DSTATE, align 2
  %conv3 = zext i16 %1 to i32
  %tobool4 = icmp ne i32 %conv3, 0
  br i1 %tobool4, label %land.lhs.true5, label %if.end15

land.lhs.true5:                                   ; preds = %land.lhs.true
  %call = call zeroext i1 @qemu_loglevel_mask(i32 noundef 32768)
  br i1 %call, label %if.then, label %if.end15

if.then:                                          ; preds = %land.lhs.true5
  %2 = load i8, ptr @message_with_timestamp, align 1
  %tobool7 = trunc i8 %2 to i1
  br i1 %tobool7, label %if.then8, label %if.else

if.then8:                                         ; preds = %if.then
  %call9 = call i32 @gettimeofday(ptr noundef %_now, ptr noundef null) #8
  %call10 = call i32 @qemu_get_thread_id()
  %tv_sec = getelementptr inbounds %struct.timeval, ptr %_now, i32 0, i32 0
  %3 = load i64, ptr %tv_sec, align 8
  %tv_usec = getelementptr inbounds %struct.timeval, ptr %_now, i32 0, i32 1
  %4 = load i64, ptr %tv_usec, align 8
  %5 = load ptr, ptr %dbs.addr, align 8
  %6 = load ptr, ptr %bs.addr, align 8
  %7 = load i64, ptr %offset.addr, align 8
  %8 = load i8, ptr %to_dev.addr, align 1
  %tobool11 = trunc i8 %8 to i1
  %conv12 = zext i1 %tobool11 to i32
  call void (ptr, ...) @qemu_log(ptr noundef @.str.4, i32 noundef %call10, i64 noundef %3, i64 noundef %4, ptr noundef %5, ptr noundef %6, i64 noundef %7, i32 noundef %conv12)
  br label %if.end

if.else:                                          ; preds = %if.then
  %9 = load ptr, ptr %dbs.addr, align 8
  %10 = load ptr, ptr %bs.addr, align 8
  %11 = load i64, ptr %offset.addr, align 8
  %12 = load i8, ptr %to_dev.addr, align 1
  %tobool13 = trunc i8 %12 to i1
  %conv14 = zext i1 %tobool13 to i32
  call void (ptr, ...) @qemu_log(ptr noundef @.str.5, ptr noundef %9, ptr noundef %10, i64 noundef %11, i32 noundef %conv14)
  br label %if.end

if.end:                                           ; preds = %if.else, %if.then8
  br label %if.end15

if.end15:                                         ; preds = %if.end, %land.lhs.true5, %land.lhs.true, %entry
  ret void
}

; Function Attrs: nounwind sspstrong uwtable
define internal void @trace_dma_blk_io(ptr noundef %dbs, ptr noundef %bs, i64 noundef %offset, i1 noundef zeroext %to_dev) #0 {
entry:
  %dbs.addr = alloca ptr, align 8
  %bs.addr = alloca ptr, align 8
  %offset.addr = alloca i64, align 8
  %to_dev.addr = alloca i8, align 1
  store ptr %dbs, ptr %dbs.addr, align 8
  store ptr %bs, ptr %bs.addr, align 8
  store i64 %offset, ptr %offset.addr, align 8
  %frombool = zext i1 %to_dev to i8
  store i8 %frombool, ptr %to_dev.addr, align 1
  %0 = load ptr, ptr %dbs.addr, align 8
  %1 = load ptr, ptr %bs.addr, align 8
  %2 = load i64, ptr %offset.addr, align 8
  %3 = load i8, ptr %to_dev.addr, align 1
  %tobool = trunc i8 %3 to i1
  call void @_nocheck__trace_dma_blk_io(ptr noundef %0, ptr noundef %1, i64 noundef %2, i1 noundef zeroext %tobool)
  ret void
}

; Function Attrs: nounwind sspstrong uwtable
define dso_local ptr @dma_blk_io(ptr noundef %ctx, ptr noundef %sg, i64 noundef %offset, i32 noundef %align, ptr noundef %io_func, ptr noundef %io_func_opaque, ptr noundef %cb, ptr noundef %opaque, i32 noundef %dir) #0 {
entry:
  %ctx.addr = alloca ptr, align 8
  %sg.addr = alloca ptr, align 8
  %offset.addr = alloca i64, align 8
  %align.addr = alloca i32, align 4
  %io_func.addr = alloca ptr, align 8
  %io_func_opaque.addr = alloca ptr, align 8
  %cb.addr = alloca ptr, align 8
  %opaque.addr = alloca ptr, align 8
  %dir.addr = alloca i32, align 4
  %dbs = alloca ptr, align 8
  store ptr %ctx, ptr %ctx.addr, align 8
  store ptr %sg, ptr %sg.addr, align 8
  store i64 %offset, ptr %offset.addr, align 8
  store i32 %align, ptr %align.addr, align 4
  store ptr %io_func, ptr %io_func.addr, align 8
  store ptr %io_func_opaque, ptr %io_func_opaque.addr, align 8
  store ptr %cb, ptr %cb.addr, align 8
  store ptr %opaque, ptr %opaque.addr, align 8
  store i32 %dir, ptr %dir.addr, align 4
  %0 = load ptr, ptr %cb.addr, align 8
  %1 = load ptr, ptr %opaque.addr, align 8
  %call = call ptr @qemu_aio_get(ptr noundef @dma_aiocb_info, ptr noundef null, ptr noundef %0, ptr noundef %1)
  store ptr %call, ptr %dbs, align 8
  %2 = load ptr, ptr %dbs, align 8
  %3 = load ptr, ptr %io_func_opaque.addr, align 8
  %4 = load i64, ptr %offset.addr, align 8
  %5 = load i32, ptr %dir.addr, align 4
  %cmp = icmp eq i32 %5, 0
  call void @trace_dma_blk_io(ptr noundef %2, ptr noundef %3, i64 noundef %4, i1 noundef zeroext %cmp)
  %6 = load ptr, ptr %dbs, align 8
  %acb = getelementptr inbounds %struct.DMAAIOCB, ptr %6, i32 0, i32 2
  store ptr null, ptr %acb, align 8
  %7 = load ptr, ptr %sg.addr, align 8
  %8 = load ptr, ptr %dbs, align 8
  %sg1 = getelementptr inbounds %struct.DMAAIOCB, ptr %8, i32 0, i32 3
  store ptr %7, ptr %sg1, align 8
  %9 = load ptr, ptr %ctx.addr, align 8
  %10 = load ptr, ptr %dbs, align 8
  %ctx2 = getelementptr inbounds %struct.DMAAIOCB, ptr %10, i32 0, i32 1
  store ptr %9, ptr %ctx2, align 8
  %11 = load i64, ptr %offset.addr, align 8
  %12 = load ptr, ptr %dbs, align 8
  %offset3 = getelementptr inbounds %struct.DMAAIOCB, ptr %12, i32 0, i32 5
  store i64 %11, ptr %offset3, align 8
  %13 = load i32, ptr %align.addr, align 4
  %14 = load ptr, ptr %dbs, align 8
  %align4 = getelementptr inbounds %struct.DMAAIOCB, ptr %14, i32 0, i32 4
  store i32 %13, ptr %align4, align 8
  %15 = load ptr, ptr %dbs, align 8
  %sg_cur_index = getelementptr inbounds %struct.DMAAIOCB, ptr %15, i32 0, i32 7
  store i32 0, ptr %sg_cur_index, align 4
  %16 = load ptr, ptr %dbs, align 8
  %sg_cur_byte = getelementptr inbounds %struct.DMAAIOCB, ptr %16, i32 0, i32 8
  store i64 0, ptr %sg_cur_byte, align 8
  %17 = load i32, ptr %dir.addr, align 4
  %18 = load ptr, ptr %dbs, align 8
  %dir5 = getelementptr inbounds %struct.DMAAIOCB, ptr %18, i32 0, i32 6
  store i32 %17, ptr %dir5, align 8
  %19 = load ptr, ptr %io_func.addr, align 8
  %20 = load ptr, ptr %dbs, align 8
  %io_func6 = getelementptr inbounds %struct.DMAAIOCB, ptr %20, i32 0, i32 11
  store ptr %19, ptr %io_func6, align 8
  %21 = load ptr, ptr %io_func_opaque.addr, align 8
  %22 = load ptr, ptr %dbs, align 8
  %io_func_opaque7 = getelementptr inbounds %struct.DMAAIOCB, ptr %22, i32 0, i32 12
  store ptr %21, ptr %io_func_opaque7, align 8
  %23 = load ptr, ptr %dbs, align 8
  %bh = getelementptr inbounds %struct.DMAAIOCB, ptr %23, i32 0, i32 10
  store ptr null, ptr %bh, align 8
  %24 = load ptr, ptr %dbs, align 8
  %iov = getelementptr inbounds %struct.DMAAIOCB, ptr %24, i32 0, i32 9
  %25 = load ptr, ptr %sg.addr, align 8
  %nsg = getelementptr inbounds %struct.QEMUSGList, ptr %25, i32 0, i32 1
  %26 = load i32, ptr %nsg, align 8
  call void @qemu_iovec_init(ptr noundef %iov, i32 noundef %26)
  %27 = load ptr, ptr %dbs, align 8
  call void @dma_blk_cb(ptr noundef %27, i32 noundef 0)
  %28 = load ptr, ptr %dbs, align 8
  %common = getelementptr inbounds %struct.DMAAIOCB, ptr %28, i32 0, i32 0
  ret ptr %common
}