; Function Attrs: nounwind sspstrong uwtable
define dso_local ptr @dma_blk_io(ptr noundef %ctx, ptr noundef %sg, i64 noundef %offset, i32 noundef %align, ptr noundef %io_func, ptr noundef %io_func_opaque, ptr noundef %cb, ptr noundef %opaque, i32 noundef %dir) local_unnamed_addr #0 {
entry:
  %_now.i.i = alloca %struct.timeval, align 8
  %call = tail call ptr @qemu_aio_get(ptr noundef nonnull @dma_aiocb_info, ptr noundef null, ptr noundef %cb, ptr noundef %opaque) #10
  %cmp = icmp eq i32 %dir, 0
  call void @llvm.lifetime.start.p0(i64 16, ptr nonnull %_now.i.i)
  %0 = load i32, ptr @trace_events_enabled_count, align 4
  %tobool.i.i = icmp ne i32 %0, 0
  %1 = load i16, ptr @_TRACE_DMA_BLK_IO_DSTATE, align 2
  %tobool4.i.i = icmp ne i16 %1, 0
  %or.cond.i.i = select i1 %tobool.i.i, i1 %tobool4.i.i, i1 false
  br i1 %or.cond.i.i, label %land.lhs.true5.i.i, label %trace_dma_blk_io.exit

land.lhs.true5.i.i:                               ; preds = %entry
  %2 = load i32, ptr @qemu_loglevel, align 4
  %and.i.i.i = and i32 %2, 32768
  %cmp.i.not.i.i = icmp eq i32 %and.i.i.i, 0
  br i1 %cmp.i.not.i.i, label %trace_dma_blk_io.exit, label %if.then.i.i

if.then.i.i:                                      ; preds = %land.lhs.true5.i.i
  %3 = load i8, ptr @message_with_timestamp, align 1
  %tobool7.i.i = trunc i8 %3 to i1
  br i1 %tobool7.i.i, label %if.then8.i.i, label %if.else.i.i

if.then8.i.i:                                     ; preds = %if.then.i.i
  %call9.i.i = call i32 @gettimeofday(ptr noundef nonnull %_now.i.i, ptr noundef null) #10
  %call10.i.i = tail call i32 @qemu_get_thread_id() #10
  %4 = load i64, ptr %_now.i.i, align 8
  %tv_usec.i.i = getelementptr inbounds nuw i8, ptr %_now.i.i, i64 8
  %5 = load i64, ptr %tv_usec.i.i, align 8
  %conv12.i.i = zext i1 %cmp to i32
  tail call void (ptr, ...) @qemu_log(ptr noundef nonnull @.str.4, i32 noundef %call10.i.i, i64 noundef %4, i64 noundef %5, ptr noundef %call, ptr noundef %io_func_opaque, i64 noundef %offset, i32 noundef %conv12.i.i) #10
  br label %trace_dma_blk_io.exit

if.else.i.i:                                      ; preds = %if.then.i.i
  %conv14.i.i = zext i1 %cmp to i32
  tail call void (ptr, ...) @qemu_log(ptr noundef nonnull @.str.5, ptr noundef %call, ptr noundef %io_func_opaque, i64 noundef %offset, i32 noundef %conv14.i.i) #10
  br label %trace_dma_blk_io.exit

trace_dma_blk_io.exit:                            ; preds = %entry, %land.lhs.true5.i.i, %if.then8.i.i, %if.else.i.i
  call void @llvm.lifetime.end.p0(i64 16, ptr nonnull %_now.i.i)
  %acb = getelementptr inbounds nuw i8, ptr %call, i64 48
  store ptr null, ptr %acb, align 8
  %sg1 = getelementptr inbounds nuw i8, ptr %call, i64 56
  store ptr %sg, ptr %sg1, align 8
  %ctx2 = getelementptr inbounds nuw i8, ptr %call, i64 40
  store ptr %ctx, ptr %ctx2, align 8
  %offset3 = getelementptr inbounds nuw i8, ptr %call, i64 72
  store i64 %offset, ptr %offset3, align 8
  %align4 = getelementptr inbounds nuw i8, ptr %call, i64 64
  store i32 %align, ptr %align4, align 8
  %sg_cur_index = getelementptr inbounds nuw i8, ptr %call, i64 84
  store i32 0, ptr %sg_cur_index, align 4
  %sg_cur_byte = getelementptr inbounds nuw i8, ptr %call, i64 88
  store i64 0, ptr %sg_cur_byte, align 8
  %dir5 = getelementptr inbounds nuw i8, ptr %call, i64 80
  store i32 %dir, ptr %dir5, align 8
  %io_func6 = getelementptr inbounds nuw i8, ptr %call, i64 144
  store ptr %io_func, ptr %io_func6, align 8
  %io_func_opaque7 = getelementptr inbounds nuw i8, ptr %call, i64 152
  store ptr %io_func_opaque, ptr %io_func_opaque7, align 8
  %bh = getelementptr inbounds nuw i8, ptr %call, i64 136
  store ptr null, ptr %bh, align 8
  %iov = getelementptr inbounds nuw i8, ptr %call, i64 96
  %nsg = getelementptr inbounds nuw i8, ptr %sg, i64 8
  %6 = load i32, ptr %nsg, align 8
  tail call void @qemu_iovec_init(ptr noundef nonnull %iov, i32 noundef %6) #10
  tail call void @dma_blk_cb(ptr noundef %call, i32 noundef 0)
  ret ptr %call
}